target datalayout = "e-m:e-p270:32:32-p271:32:32-p272:64:64-i64:64-i128:128-f80:128-n8:16:32:64-S128"
target triple = "x86_64-pc-linux-gnu"

; Function Attrs: null_pointer_is_valid sspstrong uwtable
define internal zeroext i1 @dissect_npm_heur(ptr noundef %0, ptr noundef %1, ptr noundef %2, ptr noundef %3) #0 {
  %5 = alloca i1, align 1
  %6 = alloca ptr, align 8
  %7 = alloca ptr, align 8
  %8 = alloca ptr, align 8
  %9 = alloca ptr, align 8
  %10 = alloca i32, align 4
  %11 = alloca i32, align 4
  %12 = alloca i8, align 1
  %13 = alloca i32, align 4
  %14 = alloca i8, align 1
  store ptr %0, ptr %6, align 8
  store ptr %1, ptr %7, align 8
  store ptr %2, ptr %8, align 8
  store ptr %3, ptr %9, align 8
  call void @llvm.lifetime.start.p0(i64 4, ptr %10) #7
  %15 = load ptr, ptr %6, align 8
  %16 = call i32 @tvb_captured_length(ptr noundef %15)
  store i32 %16, ptr %10, align 4
  %17 = load i32, ptr %10, align 4
  %18 = icmp ult i32 %17, 4
  br i1 %18, label %19, label %20

19:                                               ; preds = %4
  store i1 false, ptr %5, align 1
  store i32 1, ptr %11, align 4
  br label %79

20:                                               ; preds = %4
  call void @llvm.lifetime.start.p0(i64 1, ptr %12) #7
  %21 = load ptr, ptr %6, align 8
  %22 = call zeroext i8 @tvb_get_uint8(ptr noundef %21, i32 noundef 0)
  store i8 %22, ptr %12, align 1
  %23 = load i8, ptr %12, align 1
  %24 = zext i8 %23 to i32
  switch i32 %24, label %71 [
    i32 5, label %25
    i32 4, label %61
  ]

25:                                               ; preds = %20
  %26 = load i32, ptr %10, align 4
  %27 = icmp ult i32 %26, 56
  br i1 %27, label %28, label %29

28:                                               ; preds = %25
  store i1 false, ptr %5, align 1
  store i32 1, ptr %11, align 4
  br label %78

29:                                               ; preds = %25
  call void @llvm.lifetime.start.p0(i64 4, ptr %13) #7
  store i32 0, ptr %13, align 4
  br label %30

30:                                               ; preds = %55, %29
  %31 = load i32, ptr %13, align 4
  %32 = icmp slt i32 %31, 8
  br i1 %32, label %34, label %33

33:                                               ; preds = %30
  store i32 3, ptr %11, align 4
  br label %58

34:                                               ; preds = %30
  call void @llvm.lifetime.start.p0(i64 1, ptr %14) #7
  %35 = load ptr, ptr %6, align 8
  %36 = load i32, ptr %13, align 4
  %37 = add i32 48, %36
  %38 = call zeroext i8 @tvb_get_uint8(ptr noundef %35, i32 noundef %37)
  store i8 %38, ptr %14, align 1
  %39 = load i8, ptr %14, align 1
  %40 = zext i8 %39 to i32
  %41 = load i32, ptr %13, align 4
  %42 = add i32 30, %41
  %43 = icmp ne i32 %40, %42
  br i1 %43, label %44, label %51

44:                                               ; preds = %34
  %45 = load i8, ptr %14, align 1
  %46 = zext i8 %45 to i32
  %47 = load i32, ptr %13, align 4
  %48 = sub i32 127, %47
  %49 = icmp ne i32 %46, %48
  br i1 %49, label %50, label %51

50:                                               ; preds = %44
  store i1 false, ptr %5, align 1
  store i32 1, ptr %11, align 4
  br label %52

51:                                               ; preds = %44, %34
  store i32 0, ptr %11, align 4
  br label %52

52:                                               ; preds = %51, %50
  call void @llvm.lifetime.end.p0(i64 1, ptr %14) #7
  %53 = load i32, ptr %11, align 4
  switch i32 %53, label %58 [
    i32 0, label %54
  ]

54:                                               ; preds = %52
  br label %55

55:                                               ; preds = %54
  %56 = load i32, ptr %13, align 4
  %57 = add i32 %56, 1
  store i32 %57, ptr %13, align 4
  br label %30, !llvm.loop !10

58:                                               ; preds = %52, %33
  call void @llvm.lifetime.end.p0(i64 4, ptr %13) #7
  %59 = load i32, ptr %11, align 4
  switch i32 %59, label %78 [
    i32 3, label %60
  ]

60:                                               ; preds = %58
  br label %72

61:                                               ; preds = %20
  %62 = load i32, ptr %10, align 4
  %63 = icmp ult i32 %62, 26
  br i1 %63, label %64, label %65

64:                                               ; preds = %61
  store i1 false, ptr %5, align 1
  store i32 1, ptr %11, align 4
  br label %78

65:                                               ; preds = %61
  %66 = load ptr, ptr %6, align 8
  %67 = call i64 @tvb_get_ntoh64(ptr noundef %66, i32 noundef 8)
  %68 = icmp ne i64 %67, 5462289835349534580
  br i1 %68, label %69, label %70

69:                                               ; preds = %65
  store i1 false, ptr %5, align 1
  store i32 1, ptr %11, align 4
  br label %78

70:                                               ; preds = %65
  br label %72

71:                                               ; preds = %20
  store i1 false, ptr %5, align 1
  store i32 1, ptr %11, align 4
  br label %78

72:                                               ; preds = %70, %60
  %73 = load ptr, ptr %6, align 8
  %74 = load ptr, ptr %7, align 8
  %75 = load ptr, ptr %8, align 8
  %76 = load ptr, ptr %9, align 8
  %77 = call i32 @dissect_npm(ptr noundef %73, ptr noundef %74, ptr noundef %75, ptr noundef %76)
  store i1 true, ptr %5, align 1
  store i32 1, ptr %11, align 4
  br label %78

78:                                               ; preds = %72, %71, %69, %64, %58, %28
  call void @llvm.lifetime.end.p0(i64 1, ptr %12) #7
  br label %79

79:                                               ; preds = %78, %19
  call void @llvm.lifetime.end.p0(i64 4, ptr %10) #7
  %80 = load i1, ptr %5, align 1
  ret i1 %80
}