; Function Attrs: null_pointer_is_valid sspstrong uwtable
define internal noundef zeroext i1 @dissect_npm_heur(ptr noundef %0, ptr noundef %1, ptr noundef %2, ptr readnone captures(none) %3) #0 {
  %5 = tail call i32 @tvb_captured_length(ptr noundef %0)
  %6 = icmp ult i32 %5, 4
  br i1 %6, label %.loopexit, label %7

7:                                                ; preds = %4
  %8 = tail call zeroext i8 @tvb_get_uint8(ptr noundef %0, i32 noundef 0)
  switch i8 %8, label %.loopexit [
    i8 5, label %9
    i8 4, label %18
  ]

9:                                                ; preds = %7
  %10 = icmp ult i32 %5, 56
  br i1 %10, label %.loopexit, label %.critedge

11:                                               ; preds = %.critedge
  %12 = add nuw nsw i32 %.02231, 1
  %exitcond = icmp eq i32 %12, 8
  br i1 %exitcond, label %.critedge30, label %.critedge, !llvm.loop !11

.critedge:                                        ; preds = %9, %11
  %.02231 = phi i32 [ %12, %11 ], [ 0, %9 ]
  %13 = or disjoint i32 %.02231, 48
  %14 = tail call zeroext i8 @tvb_get_uint8(ptr noundef %0, i32 noundef %13)
  %15 = zext i8 %14 to i32
  %16 = add nuw nsw i32 %.02231, 30
  %.not27 = icmp eq i32 %16, %15
  %17 = xor i32 %.02231, %15
  %.not28 = icmp eq i32 %17, 127
  %or.cond = or i1 %.not27, %.not28
  br i1 %or.cond, label %11, label %.loopexit

18:                                               ; preds = %7
  %19 = icmp ult i32 %5, 26
  br i1 %19, label %.loopexit, label %20

20:                                               ; preds = %18
  %21 = tail call i64 @tvb_get_ntoh64(ptr noundef %0, i32 noundef 8)
  %.not = icmp eq i64 %21, 5462289835349534580
  br i1 %.not, label %.critedge30, label %.loopexit

.critedge30:                                      ; preds = %11, %20
  %22 = tail call i32 @dissect_npm(ptr noundef %0, ptr noundef %1, ptr noundef %2, ptr poison)
  br label %.loopexit

.loopexit:                                        ; preds = %.critedge, %.critedge30, %9, %18, %20, %7, %4
  %.0 = phi i1 [ false, %4 ], [ true, %.critedge30 ], [ false, %9 ], [ false, %18 ], [ false, %20 ], [ false, %7 ], [ false, %.critedge ]
  ret i1 %.0
}